target datalayout = "e-m:e-p270:32:32-p271:32:32-p272:64:64-i64:64-i128:128-f80:128-n8:16:32:64-S128"
target triple = "x86_64-unknown-linux-gnu"

%"class.sat::literal" = type { i32 }
%"class.sat::lookahead" = type { ptr, i32, %class.reslimit, %"struct.sat::lookahead::config", double, double, double, %class.svector.1, %class.svector.1, %class.svector.3, %class.vector.5, %class.svector.3, %class.svector.3, %class.vector.6, %class.svector.3, %class.small_object_allocator, %class.vector.7, %class.ptr_vector.8, %class.svector.3, i32, %class.svector.3, i32, %class.svector.3, i8, %class.svector.3, %class.vector.10, ptr, %class.svector.11, i32, i32, %class.svector.3, i32, i32, %class.vector.13, %class.svector.14, double, %class.svector.1, i32, i64, %class.svector.16, i32, %class.indexed_uint_set, i32, i32, %"struct.sat::lookahead::stats", %class.svector.18, %"struct.sat::lookahead::cube_state", i32, %class.svector.22, %class.tracked_uint_set, %"class.sat::literal", i32, i32, %"class.sat::literal", %class.vector.26, %"class.sat::literal", %class.svector.27 }
%class.reslimit = type { %"struct.std::atomic", i8, i64, i64, %class.svector, %class.ptr_vector }
%"struct.std::atomic" = type { %"struct.std::__atomic_base" }
%"struct.std::__atomic_base" = type { i32 }
%class.svector = type { %class.vector }
%class.vector = type { ptr }
%class.ptr_vector = type { %class.vector.0 }
%class.vector.0 = type { ptr }
%"struct.sat::lookahead::config" = type { double, double, double, i32, i32, i8, i32, double, i32, i32, i32, i32, i32, double, double, double, double, double }
%class.vector.5 = type { ptr }
%class.vector.6 = type { ptr }
%class.small_object_allocator = type { [32 x ptr], [32 x ptr], i64 }
%class.vector.7 = type { ptr }
%class.ptr_vector.8 = type { %class.vector.9 }
%class.vector.9 = type { ptr }
%class.vector.10 = type { ptr }
%class.svector.11 = type { %class.vector.12 }
%class.vector.12 = type { ptr }
%class.svector.3 = type { %class.vector.4 }
%class.vector.4 = type { ptr }
%class.vector.13 = type { ptr }
%class.svector.14 = type { %class.vector.15 }
%class.vector.15 = type { ptr }
%class.svector.1 = type { %class.vector.2 }
%class.vector.2 = type { ptr }
%class.svector.16 = type { %class.vector.17 }
%class.vector.17 = type { ptr }
%class.indexed_uint_set = type { i32, %class.svector.3, %class.svector.3 }
%"struct.sat::lookahead::stats" = type { i32, i32, i32, i32, i32, i32, i32, i32 }
%class.svector.18 = type { %class.vector.19 }
%class.vector.19 = type { ptr }
%"struct.sat::lookahead::cube_state" = type <{ i8, [7 x i8], %class.svector.20, %class.svector.1, double, double, i32, i32, i32, [4 x i8] }>
%class.svector.20 = type { %class.vector.21 }
%class.vector.21 = type { ptr }
%class.svector.22 = type { %class.vector.23 }
%class.vector.23 = type { ptr }
%class.tracked_uint_set = type { %class.svector.24, %class.svector.3 }
%class.svector.24 = type { %class.vector.25 }
%class.vector.25 = type { ptr }
%class.vector.26 = type { ptr }
%class.svector.27 = type { %class.vector.28 }
%class.vector.28 = type { ptr }
%"struct.sat::lookahead::binary" = type { %"class.sat::literal", %"class.sat::literal" }
%class.svector.69 = type { %class.vector.70 }
%class.vector.70 = type { ptr }

; Function Attrs: mustprogress nounwind uwtable
define linkonce_odr hidden noundef nonnull align 4 dereferenceable(4) ptr @_ZN6vectorIjLb0EjEixEj(ptr noundef nonnull align 8 dereferenceable(8) %this, i32 noundef %idx) #4 comdat align 2 {
entry:
  %this.addr = alloca ptr, align 8
  %idx.addr = alloca i32, align 4
  store ptr %this, ptr %this.addr, align 8
  store i32 %idx, ptr %idx.addr, align 4
  %this1 = load ptr, ptr %this.addr, align 8
  %m_data = getelementptr inbounds %class.vector.4, ptr %this1, i32 0, i32 0
  %0 = load ptr, ptr %m_data, align 8
  %1 = load i32, ptr %idx.addr, align 4
  %idxprom = zext i32 %1 to i64
  %arrayidx = getelementptr inbounds i32, ptr %0, i64 %idxprom
  ret ptr %arrayidx
}

; Function Attrs: mustprogress uwtable
define linkonce_odr hidden noundef nonnull align 8 dereferenceable(8) ptr @_ZN6vectorIN3sat9lookahead6binaryELb0EjE9push_backEOS2_(ptr noundef nonnull align 8 dereferenceable(8) %this, ptr noundef nonnull align 4 dereferenceable(8) %elem) #5 comdat align 2 {
entry:
  %this.addr = alloca ptr, align 8
  %elem.addr = alloca ptr, align 8
  store ptr %this, ptr %this.addr, align 8
  store ptr %elem, ptr %elem.addr, align 8
  %this1 = load ptr, ptr %this.addr, align 8
  %m_data = getelementptr inbounds %class.vector.70, ptr %this1, i32 0, i32 0
  %0 = load ptr, ptr %m_data, align 8
  %cmp = icmp eq ptr %0, null
  br i1 %cmp, label %if.then, label %lor.lhs.false

lor.lhs.false:                                    ; preds = %entry
  %m_data2 = getelementptr inbounds %class.vector.70, ptr %this1, i32 0, i32 0
  %1 = load ptr, ptr %m_data2, align 8
  %arrayidx = getelementptr inbounds i32, ptr %1, i64 -1
  %2 = load i32, ptr %arrayidx, align 4
  %m_data3 = getelementptr inbounds %class.vector.70, ptr %this1, i32 0, i32 0
  %3 = load ptr, ptr %m_data3, align 8
  %arrayidx4 = getelementptr inbounds i32, ptr %3, i64 -2
  %4 = load i32, ptr %arrayidx4, align 4
  %cmp5 = icmp eq i32 %2, %4
  br i1 %cmp5, label %if.then, label %if.end

if.then:                                          ; preds = %lor.lhs.false, %entry
  call void @_ZN6vectorIN3sat9lookahead6binaryELb0EjE13expand_vectorEv(ptr noundef nonnull align 8 dereferenceable(8) %this1)
  br label %if.end

if.end:                                           ; preds = %if.then, %lor.lhs.false
  %m_data6 = getelementptr inbounds %class.vector.70, ptr %this1, i32 0, i32 0
  %5 = load ptr, ptr %m_data6, align 8
  %m_data7 = getelementptr inbounds %class.vector.70, ptr %this1, i32 0, i32 0
  %6 = load ptr, ptr %m_data7, align 8
  %arrayidx8 = getelementptr inbounds i32, ptr %6, i64 -1
  %7 = load i32, ptr %arrayidx8, align 4
  %idx.ext = zext i32 %7 to i64
  %add.ptr = getelementptr inbounds %"struct.sat::lookahead::binary", ptr %5, i64 %idx.ext
  %8 = load ptr, ptr %elem.addr, align 8
  call void @llvm.memcpy.p0.p0.i64(ptr align 4 %add.ptr, ptr align 4 %8, i64 8, i1 false)
  %m_data9 = getelementptr inbounds %class.vector.70, ptr %this1, i32 0, i32 0
  %9 = load ptr, ptr %m_data9, align 8
  %arrayidx10 = getelementptr inbounds i32, ptr %9, i64 -1
  %10 = load i32, ptr %arrayidx10, align 4
  %inc = add i32 %10, 1
  store i32 %inc, ptr %arrayidx10, align 4
  ret ptr %this1
}

; Function Attrs: mustprogress nounwind uwtable
define linkonce_odr hidden void @_ZN3sat9lookahead6binaryC2ENS_7literalES2_(ptr noundef nonnull align 4 dereferenceable(8) %this, i32 %u.coerce, i32 %v.coerce) unnamed_addr #4 comdat align 2 {
entry:
  %u = alloca %"class.sat::literal", align 4
  %v = alloca %"class.sat::literal", align 4
  %this.addr = alloca ptr, align 8
  %coerce.dive = getelementptr inbounds %"class.sat::literal", ptr %u, i32 0, i32 0
  store i32 %u.coerce, ptr %coerce.dive, align 4
  %coerce.dive1 = getelementptr inbounds %"class.sat::literal", ptr %v, i32 0, i32 0
  store i32 %v.coerce, ptr %coerce.dive1, align 4
  store ptr %this, ptr %this.addr, align 8
  %this2 = load ptr, ptr %this.addr, align 8
  %m_u = getelementptr inbounds %"struct.sat::lookahead::binary", ptr %this2, i32 0, i32 0
  call void @llvm.memcpy.p0.p0.i64(ptr align 4 %m_u, ptr align 4 %u, i64 4, i1 false)
  %m_v = getelementptr inbounds %"struct.sat::lookahead::binary", ptr %this2, i32 0, i32 1
  call void @llvm.memcpy.p0.p0.i64(ptr align 4 %m_v, ptr align 4 %v, i64 4, i1 false)
  ret void
}

; Function Attrs: mustprogress nounwind uwtable
define linkonce_odr hidden noundef nonnull align 8 dereferenceable(8) ptr @_ZN6vectorI7svectorIN3sat9lookahead6binaryEjELb1EjEixEj(ptr noundef nonnull align 8 dereferenceable(8) %this, i32 noundef %idx) #4 comdat align 2 {
entry:
  %this.addr = alloca ptr, align 8
  %idx.addr = alloca i32, align 4
  store ptr %this, ptr %this.addr, align 8
  store i32 %idx, ptr %idx.addr, align 4
  %this1 = load ptr, ptr %this.addr, align 8
  %m_data = getelementptr inbounds %class.vector.6, ptr %this1, i32 0, i32 0
  %0 = load ptr, ptr %m_data, align 8
  %1 = load i32, ptr %idx.addr, align 4
  %idxprom = zext i32 %1 to i64
  %arrayidx = getelementptr inbounds %class.svector.69, ptr %0, i64 %idxprom
  ret ptr %arrayidx
}

; Function Attrs: mustprogress nounwind uwtable
define linkonce_odr hidden noundef i32 @_ZNK3sat7literal5indexEv(ptr noundef nonnull align 4 dereferenceable(4) %this) #4 comdat align 2 {
entry:
  %this.addr = alloca ptr, align 8
  store ptr %this, ptr %this.addr, align 8
  %this1 = load ptr, ptr %this.addr, align 8
  %m_val = getelementptr inbounds %"class.sat::literal", ptr %this1, i32 0, i32 0
  %0 = load i32, ptr %m_val, align 4
  ret i32 %0
}

; Function Attrs: mustprogress uwtable
define hidden void @_ZN3sat9lookahead11add_ternaryENS_7literalES1_S1_(ptr noundef nonnull align 8 dereferenceable(1160) %this, i32 %u.coerce, i32 %v.coerce, i32 %w.coerce) #5 align 2 {
entry:
  %u = alloca %"class.sat::literal", align 4
  %v = alloca %"class.sat::literal", align 4
  %w = alloca %"class.sat::literal", align 4
  %this.addr = alloca ptr, align 8
  %ref.tmp = alloca %"struct.sat::lookahead::binary", align 4
  %agg.tmp = alloca %"class.sat::literal", align 4
  %agg.tmp5 = alloca %"class.sat::literal", align 4
  %ref.tmp12 = alloca %"struct.sat::lookahead::binary", align 4
  %agg.tmp13 = alloca %"class.sat::literal", align 4
  %agg.tmp14 = alloca %"class.sat::literal", align 4
  %ref.tmp21 = alloca %"struct.sat::lookahead::binary", align 4
  %agg.tmp22 = alloca %"class.sat::literal", align 4
  %agg.tmp23 = alloca %"class.sat::literal", align 4
  %coerce.dive = getelementptr inbounds %"class.sat::literal", ptr %u, i32 0, i32 0
  store i32 %u.coerce, ptr %coerce.dive, align 4
  %coerce.dive1 = getelementptr inbounds %"class.sat::literal", ptr %v, i32 0, i32 0
  store i32 %v.coerce, ptr %coerce.dive1, align 4
  %coerce.dive2 = getelementptr inbounds %"class.sat::literal", ptr %w, i32 0, i32 0
  store i32 %w.coerce, ptr %coerce.dive2, align 4
  store ptr %this, ptr %this.addr, align 8
  %this3 = load ptr, ptr %this.addr, align 8
  %m_ternary = getelementptr inbounds %"class.sat::lookahead", ptr %this3, i32 0, i32 13
  %call = call noundef i32 @_ZNK3sat7literal5indexEv(ptr noundef nonnull align 4 dereferenceable(4) %u)
  %call4 = call noundef nonnull align 8 dereferenceable(8) ptr @_ZN6vectorI7svectorIN3sat9lookahead6binaryEjELb1EjEixEj(ptr noundef nonnull align 8 dereferenceable(8) %m_ternary, i32 noundef %call)
  call void @llvm.memcpy.p0.p0.i64(ptr align 4 %agg.tmp, ptr align 4 %v, i64 4, i1 false)
  call void @llvm.memcpy.p0.p0.i64(ptr align 4 %agg.tmp5, ptr align 4 %w, i64 4, i1 false)
  %coerce.dive6 = getelementptr inbounds %"class.sat::literal", ptr %agg.tmp, i32 0, i32 0
  %0 = load i32, ptr %coerce.dive6, align 4
  %coerce.dive7 = getelementptr inbounds %"class.sat::literal", ptr %agg.tmp5, i32 0, i32 0
  %1 = load i32, ptr %coerce.dive7, align 4
  call void @_ZN3sat9lookahead6binaryC2ENS_7literalES2_(ptr noundef nonnull align 4 dereferenceable(8) %ref.tmp, i32 %0, i32 %1)
  %call8 = call noundef nonnull align 8 dereferenceable(8) ptr @_ZN6vectorIN3sat9lookahead6binaryELb0EjE9push_backEOS2_(ptr noundef nonnull align 8 dereferenceable(8) %call4, ptr noundef nonnull align 4 dereferenceable(8) %ref.tmp)
  %m_ternary9 = getelementptr inbounds %"class.sat::lookahead", ptr %this3, i32 0, i32 13
  %call10 = call noundef i32 @_ZNK3sat7literal5indexEv(ptr noundef nonnull align 4 dereferenceable(4) %v)
  %call11 = call noundef nonnull align 8 dereferenceable(8) ptr @_ZN6vectorI7svectorIN3sat9lookahead6binaryEjELb1EjEixEj(ptr noundef nonnull align 8 dereferenceable(8) %m_ternary9, i32 noundef %call10)
  call void @llvm.memcpy.p0.p0.i64(ptr align 4 %agg.tmp13, ptr align 4 %w, i64 4, i1 false)
  call void @llvm.memcpy.p0.p0.i64(ptr align 4 %agg.tmp14, ptr align 4 %u, i64 4, i1 false)
  %coerce.dive15 = getelementptr inbounds %"class.sat::literal", ptr %agg.tmp13, i32 0, i32 0
  %2 = load i32, ptr %coerce.dive15, align 4
  %coerce.dive16 = getelementptr inbounds %"class.sat::literal", ptr %agg.tmp14, i32 0, i32 0
  %3 = load i32, ptr %coerce.dive16, align 4
  call void @_ZN3sat9lookahead6binaryC2ENS_7literalES2_(ptr noundef nonnull align 4 dereferenceable(8) %ref.tmp12, i32 %2, i32 %3)
  %call17 = call noundef nonnull align 8 dereferenceable(8) ptr @_ZN6vectorIN3sat9lookahead6binaryELb0EjE9push_backEOS2_(ptr noundef nonnull align 8 dereferenceable(8) %call11, ptr noundef nonnull align 4 dereferenceable(8) %ref.tmp12)
  %m_ternary18 = getelementptr inbounds %"class.sat::lookahead", ptr %this3, i32 0, i32 13
  %call19 = call noundef i32 @_ZNK3sat7literal5indexEv(ptr noundef nonnull align 4 dereferenceable(4) %w)
  %call20 = call noundef nonnull align 8 dereferenceable(8) ptr @_ZN6vectorI7svectorIN3sat9lookahead6binaryEjELb1EjEixEj(ptr noundef nonnull align 8 dereferenceable(8) %m_ternary18, i32 noundef %call19)
  call void @llvm.memcpy.p0.p0.i64(ptr align 4 %agg.tmp22, ptr align 4 %u, i64 4, i1 false)
  call void @llvm.memcpy.p0.p0.i64(ptr align 4 %agg.tmp23, ptr align 4 %v, i64 4, i1 false)
  %coerce.dive24 = getelementptr inbounds %"class.sat::literal", ptr %agg.tmp22, i32 0, i32 0
  %4 = load i32, ptr %coerce.dive24, align 4
  %coerce.dive25 = getelementptr inbounds %"class.sat::literal", ptr %agg.tmp23, i32 0, i32 0
  %5 = load i32, ptr %coerce.dive25, align 4
  call void @_ZN3sat9lookahead6binaryC2ENS_7literalES2_(ptr noundef nonnull align 4 dereferenceable(8) %ref.tmp21, i32 %4, i32 %5)
  %call26 = call noundef nonnull align 8 dereferenceable(8) ptr @_ZN6vectorIN3sat9lookahead6binaryELb0EjE9push_backEOS2_(ptr noundef nonnull align 8 dereferenceable(8) %call20, ptr noundef nonnull align 4 dereferenceable(8) %ref.tmp21)
  %m_ternary_count = getelementptr inbounds %"class.sat::lookahead", ptr %this3, i32 0, i32 14
  %call27 = call noundef i32 @_ZNK3sat7literal5indexEv(ptr noundef nonnull align 4 dereferenceable(4) %u)
  %call28 = call noundef nonnull align 4 dereferenceable(4) ptr @_ZN6vectorIjLb0EjEixEj(ptr noundef nonnull align 8 dereferenceable(8) %m_ternary_count, i32 noundef %call27)
  %6 = load i32, ptr %call28, align 4
  %inc = add i32 %6, 1
  store i32 %inc, ptr %call28, align 4
  %m_ternary_count29 = getelementptr inbounds %"class.sat::lookahead", ptr %this3, i32 0, i32 14
  %call30 = call noundef i32 @_ZNK3sat7literal5indexEv(ptr noundef nonnull align 4 dereferenceable(4) %v)
  %call31 = call noundef nonnull align 4 dereferenceable(4) ptr @_ZN6vectorIjLb0EjEixEj(ptr noundef nonnull align 8 dereferenceable(8) %m_ternary_count29, i32 noundef %call30)
  %7 = load i32, ptr %call31, align 4
  %inc32 = add i32 %7, 1
  store i32 %inc32, ptr %call31, align 4
  %m_ternary_count33 = getelementptr inbounds %"class.sat::lookahead", ptr %this3, i32 0, i32 14
  %call34 = call noundef i32 @_ZNK3sat7literal5indexEv(ptr noundef nonnull align 4 dereferenceable(4) %w)
  %call35 = call noundef nonnull align 4 dereferenceable(4) ptr @_ZN6vectorIjLb0EjEixEj(ptr noundef nonnull align 8 dereferenceable(8) %m_ternary_count33, i32 noundef %call34)
  %8 = load i32, ptr %call35, align 4
  %inc36 = add i32 %8, 1
  store i32 %inc36, ptr %call35, align 4
  ret void
}