; Function Attrs: mustprogress uwtable
define hidden void @_ZN3sat9lookahead11add_ternaryENS_7literalES1_S1_(ptr nocapture noundef nonnull readonly align 8 dereferenceable(1160) %this, i32 %u.coerce, i32 %v.coerce, i32 %w.coerce) local_unnamed_addr #3 align 2 {
entry:
  %m_ternary = getelementptr inbounds i8, ptr %this, i64 240
  %0 = load ptr, ptr %m_ternary, align 8
  %idxprom.i = zext i32 %u.coerce to i64
  %arrayidx.i = getelementptr inbounds %class.svector.69, ptr %0, i64 %idxprom.i
  %1 = load ptr, ptr %arrayidx.i, align 8
  %cmp.i = icmp eq ptr %1, null
  br i1 %cmp.i, label %if.then.i, label %lor.lhs.false.i

lor.lhs.false.i:                                  ; preds = %entry
  %arrayidx.i1 = getelementptr inbounds i8, ptr %1, i64 -4
  %2 = load i32, ptr %arrayidx.i1, align 4
  %arrayidx4.i = getelementptr inbounds i8, ptr %1, i64 -8
  %3 = load i32, ptr %arrayidx4.i, align 4
  %cmp5.i = icmp eq i32 %2, %3
  br i1 %cmp5.i, label %if.then.i, label %_ZN6vectorIN3sat9lookahead6binaryELb0EjE9push_backEOS2_.exit

if.then.i:                                        ; preds = %lor.lhs.false.i, %entry
  tail call void @_ZN6vectorIN3sat9lookahead6binaryELb0EjE13expand_vectorEv(ptr noundef nonnull align 8 dereferenceable(8) %arrayidx.i)
  %.pre.i = load ptr, ptr %arrayidx.i, align 8
  %arrayidx8.phi.trans.insert.i = getelementptr inbounds i8, ptr %.pre.i, i64 -4
  %.pre1.i = load i32, ptr %arrayidx8.phi.trans.insert.i, align 4
  br label %_ZN6vectorIN3sat9lookahead6binaryELb0EjE9push_backEOS2_.exit

_ZN6vectorIN3sat9lookahead6binaryELb0EjE9push_backEOS2_.exit: ; preds = %lor.lhs.false.i, %if.then.i
  %4 = phi i32 [ %.pre1.i, %if.then.i ], [ %2, %lor.lhs.false.i ]
  %5 = phi ptr [ %.pre.i, %if.then.i ], [ %1, %lor.lhs.false.i ]
  %idx.ext.i = zext i32 %4 to i64
  %add.ptr.i = getelementptr inbounds %"struct.sat::lookahead::binary", ptr %5, i64 %idx.ext.i
  %ref.tmp.sroa.2.0.insert.ext = zext i32 %w.coerce to i64
  %ref.tmp.sroa.2.0.insert.shift = shl nuw i64 %ref.tmp.sroa.2.0.insert.ext, 32
  %ref.tmp.sroa.0.0.insert.ext = zext i32 %v.coerce to i64
  %ref.tmp.sroa.0.0.insert.insert = or disjoint i64 %ref.tmp.sroa.2.0.insert.shift, %ref.tmp.sroa.0.0.insert.ext
  store i64 %ref.tmp.sroa.0.0.insert.insert, ptr %add.ptr.i, align 4
  %6 = load ptr, ptr %arrayidx.i, align 8
  %arrayidx10.i = getelementptr inbounds i8, ptr %6, i64 -4
  %7 = load i32, ptr %arrayidx10.i, align 4
  %inc.i = add i32 %7, 1
  store i32 %inc.i, ptr %arrayidx10.i, align 4
  %8 = load ptr, ptr %m_ternary, align 8
  %arrayidx.i3 = getelementptr inbounds %class.svector.69, ptr %8, i64 %ref.tmp.sroa.0.0.insert.ext
  %9 = load ptr, ptr %arrayidx.i3, align 8
  %cmp.i5 = icmp eq ptr %9, null
  br i1 %cmp.i5, label %if.then.i14, label %lor.lhs.false.i6

lor.lhs.false.i6:                                 ; preds = %_ZN6vectorIN3sat9lookahead6binaryELb0EjE9push_backEOS2_.exit
  %arrayidx.i7 = getelementptr inbounds i8, ptr %9, i64 -4
  %10 = load i32, ptr %arrayidx.i7, align 4
  %arrayidx4.i8 = getelementptr inbounds i8, ptr %9, i64 -8
  %11 = load i32, ptr %arrayidx4.i8, align 4
  %cmp5.i9 = icmp eq i32 %10, %11
  br i1 %cmp5.i9, label %if.then.i14, label %_ZN6vectorIN3sat9lookahead6binaryELb0EjE9push_backEOS2_.exit18

if.then.i14:                                      ; preds = %lor.lhs.false.i6, %_ZN6vectorIN3sat9lookahead6binaryELb0EjE9push_backEOS2_.exit
  tail call void @_ZN6vectorIN3sat9lookahead6binaryELb0EjE13expand_vectorEv(ptr noundef nonnull align 8 dereferenceable(8) %arrayidx.i3)
  %.pre.i15 = load ptr, ptr %arrayidx.i3, align 8
  %arrayidx8.phi.trans.insert.i16 = getelementptr inbounds i8, ptr %.pre.i15, i64 -4
  %.pre1.i17 = load i32, ptr %arrayidx8.phi.trans.insert.i16, align 4
  br label %_ZN6vectorIN3sat9lookahead6binaryELb0EjE9push_backEOS2_.exit18

_ZN6vectorIN3sat9lookahead6binaryELb0EjE9push_backEOS2_.exit18: ; preds = %lor.lhs.false.i6, %if.then.i14
  %12 = phi i32 [ %.pre1.i17, %if.then.i14 ], [ %10, %lor.lhs.false.i6 ]
  %13 = phi ptr [ %.pre.i15, %if.then.i14 ], [ %9, %lor.lhs.false.i6 ]
  %idx.ext.i10 = zext i32 %12 to i64
  %add.ptr.i11 = getelementptr inbounds %"struct.sat::lookahead::binary", ptr %13, i64 %idx.ext.i10
  %ref.tmp12.sroa.2.0.insert.shift = shl nuw i64 %idxprom.i, 32
  %ref.tmp12.sroa.0.0.insert.insert = or disjoint i64 %ref.tmp12.sroa.2.0.insert.shift, %ref.tmp.sroa.2.0.insert.ext
  store i64 %ref.tmp12.sroa.0.0.insert.insert, ptr %add.ptr.i11, align 4
  %14 = load ptr, ptr %arrayidx.i3, align 8
  %arrayidx10.i12 = getelementptr inbounds i8, ptr %14, i64 -4
  %15 = load i32, ptr %arrayidx10.i12, align 4
  %inc.i13 = add i32 %15, 1
  store i32 %inc.i13, ptr %arrayidx10.i12, align 4
  %16 = load ptr, ptr %m_ternary, align 8
  %arrayidx.i20 = getelementptr inbounds %class.svector.69, ptr %16, i64 %ref.tmp.sroa.2.0.insert.ext
  %17 = load ptr, ptr %arrayidx.i20, align 8
  %cmp.i22 = icmp eq ptr %17, null
  br i1 %cmp.i22, label %if.then.i31, label %lor.lhs.false.i23

lor.lhs.false.i23:                                ; preds = %_ZN6vectorIN3sat9lookahead6binaryELb0EjE9push_backEOS2_.exit18
  %arrayidx.i24 = getelementptr inbounds i8, ptr %17, i64 -4
  %18 = load i32, ptr %arrayidx.i24, align 4
  %arrayidx4.i25 = getelementptr inbounds i8, ptr %17, i64 -8
  %19 = load i32, ptr %arrayidx4.i25, align 4
  %cmp5.i26 = icmp eq i32 %18, %19
  br i1 %cmp5.i26, label %if.then.i31, label %_ZN6vectorIN3sat9lookahead6binaryELb0EjE9push_backEOS2_.exit35

if.then.i31:                                      ; preds = %lor.lhs.false.i23, %_ZN6vectorIN3sat9lookahead6binaryELb0EjE9push_backEOS2_.exit18
  tail call void @_ZN6vectorIN3sat9lookahead6binaryELb0EjE13expand_vectorEv(ptr noundef nonnull align 8 dereferenceable(8) %arrayidx.i20)
  %.pre.i32 = load ptr, ptr %arrayidx.i20, align 8
  %arrayidx8.phi.trans.insert.i33 = getelementptr inbounds i8, ptr %.pre.i32, i64 -4
  %.pre1.i34 = load i32, ptr %arrayidx8.phi.trans.insert.i33, align 4
  br label %_ZN6vectorIN3sat9lookahead6binaryELb0EjE9push_backEOS2_.exit35

_ZN6vectorIN3sat9lookahead6binaryELb0EjE9push_backEOS2_.exit35: ; preds = %lor.lhs.false.i23, %if.then.i31
  %20 = phi i32 [ %.pre1.i34, %if.then.i31 ], [ %18, %lor.lhs.false.i23 ]
  %21 = phi ptr [ %.pre.i32, %if.then.i31 ], [ %17, %lor.lhs.false.i23 ]
  %idx.ext.i27 = zext i32 %20 to i64
  %add.ptr.i28 = getelementptr inbounds %"struct.sat::lookahead::binary", ptr %21, i64 %idx.ext.i27
  %ref.tmp21.sroa.2.0.insert.shift = shl nuw i64 %ref.tmp.sroa.0.0.insert.ext, 32
  %ref.tmp21.sroa.0.0.insert.insert = or disjoint i64 %ref.tmp21.sroa.2.0.insert.shift, %idxprom.i
  store i64 %ref.tmp21.sroa.0.0.insert.insert, ptr %add.ptr.i28, align 4
  %22 = load ptr, ptr %arrayidx.i20, align 8
  %arrayidx10.i29 = getelementptr inbounds i8, ptr %22, i64 -4
  %23 = load i32, ptr %arrayidx10.i29, align 4
  %inc.i30 = add i32 %23, 1
  store i32 %inc.i30, ptr %arrayidx10.i29, align 4
  %m_ternary_count = getelementptr inbounds i8, ptr %this, i64 248
  %24 = load ptr, ptr %m_ternary_count, align 8
  %arrayidx.i37 = getelementptr inbounds i32, ptr %24, i64 %idxprom.i
  %25 = load i32, ptr %arrayidx.i37, align 4
  %inc = add i32 %25, 1
  store i32 %inc, ptr %arrayidx.i37, align 4
  %26 = load ptr, ptr %m_ternary_count, align 8
  %arrayidx.i39 = getelementptr inbounds i32, ptr %26, i64 %ref.tmp.sroa.0.0.insert.ext
  %27 = load i32, ptr %arrayidx.i39, align 4
  %inc32 = add i32 %27, 1
  store i32 %inc32, ptr %arrayidx.i39, align 4
  %28 = load ptr, ptr %m_ternary_count, align 8
  %arrayidx.i41 = getelementptr inbounds i32, ptr %28, i64 %ref.tmp.sroa.2.0.insert.ext
  %29 = load i32, ptr %arrayidx.i41, align 4
  %inc36 = add i32 %29, 1
  store i32 %inc36, ptr %arrayidx.i41, align 4
  ret void
}